target datalayout = "e-m:e-p270:32:32-p271:32:32-p272:64:64-i64:64-i128:128-f80:128-n8:16:32:64-S128"
target triple = "x86_64-pc-linux-gnu"

%"class.ZXing::ResultPoint" = type { %"struct.ZXing::PointT" }
%"struct.ZXing::PointT" = type { double, double }

; Function Attrs: mustprogress nounwind uwtable
define linkonce_odr void @_ZN5ZXing6PointTIdEC2Edd(ptr noundef nonnull align 8 dereferenceable(16) %0, double noundef %1, double noundef %2) unnamed_addr #1 comdat align 2 {
  %4 = alloca ptr, align 8
  %5 = alloca double, align 8
  %6 = alloca double, align 8
  store ptr %0, ptr %4, align 8
  store double %1, ptr %5, align 8
  store double %2, ptr %6, align 8
  %7 = load ptr, ptr %4, align 8
  %8 = getelementptr inbounds %"struct.ZXing::PointT", ptr %7, i32 0, i32 0
  %9 = load double, ptr %5, align 8
  store double %9, ptr %8, align 8
  %10 = getelementptr inbounds %"struct.ZXing::PointT", ptr %7, i32 0, i32 1
  %11 = load double, ptr %6, align 8
  store double %11, ptr %10, align 8
  ret void
}

; Function Attrs: mustprogress nounwind uwtable
define linkonce_odr void @_ZN5ZXing11ResultPointC2Eff(ptr noundef nonnull align 8 dereferenceable(16) %0, float noundef %1, float noundef %2) unnamed_addr #1 comdat align 2 {
  %4 = alloca ptr, align 8
  %5 = alloca float, align 4
  %6 = alloca float, align 4
  store ptr %0, ptr %4, align 8
  store float %1, ptr %5, align 4
  store float %2, ptr %6, align 4
  %7 = load ptr, ptr %4, align 8
  %8 = load float, ptr %5, align 4
  %9 = fpext float %8 to double
  %10 = load float, ptr %6, align 4
  %11 = fpext float %10 to double
  call void @_ZN5ZXing6PointTIdEC2Edd(ptr noundef nonnull align 8 dereferenceable(16) %7, double noundef %9, double noundef %11)
  ret void
}

; Function Attrs: mustprogress nounwind uwtable
define linkonce_odr noundef float @_ZNK5ZXing11ResultPoint1yEv(ptr noundef nonnull align 8 dereferenceable(16) %0) #1 comdat align 2 {
  %2 = alloca ptr, align 8
  store ptr %0, ptr %2, align 8
  %3 = load ptr, ptr %2, align 8
  %4 = getelementptr inbounds %"struct.ZXing::PointT", ptr %3, i32 0, i32 1
  %5 = load double, ptr %4, align 8
  %6 = fptrunc double %5 to float
  ret float %6
}

; Function Attrs: mustprogress nounwind uwtable
define linkonce_odr noundef float @_ZNK5ZXing11ResultPoint1xEv(ptr noundef nonnull align 8 dereferenceable(16) %0) #1 comdat align 2 {
  %2 = alloca ptr, align 8
  store ptr %0, ptr %2, align 8
  %3 = load ptr, ptr %2, align 8
  %4 = getelementptr inbounds %"struct.ZXing::PointT", ptr %3, i32 0, i32 0
  %5 = load double, ptr %4, align 8
  %6 = fptrunc double %5 to float
  ret float %6
}

; Function Attrs: mustprogress uwtable
define internal void @_ZN5ZXingL11CenterEdgesERKNS_11ResultPointES2_S2_S2_iRS0_S3_S3_S3_(ptr noundef nonnull align 8 dereferenceable(16) %0, ptr noundef nonnull align 8 dereferenceable(16) %1, ptr noundef nonnull align 8 dereferenceable(16) %2, ptr noundef nonnull align 8 dereferenceable(16) %3, i32 noundef %4, ptr noundef nonnull align 8 dereferenceable(16) %5, ptr noundef nonnull align 8 dereferenceable(16) %6, ptr noundef nonnull align 8 dereferenceable(16) %7, ptr noundef nonnull align 8 dereferenceable(16) %8) #0 {
  %10 = alloca ptr, align 8
  %11 = alloca ptr, align 8
  %12 = alloca ptr, align 8
  %13 = alloca ptr, align 8
  %14 = alloca i32, align 4
  %15 = alloca ptr, align 8
  %16 = alloca ptr, align 8
  %17 = alloca ptr, align 8
  %18 = alloca ptr, align 8
  %19 = alloca float, align 4
  %20 = alloca float, align 4
  %21 = alloca float, align 4
  %22 = alloca float, align 4
  %23 = alloca float, align 4
  %24 = alloca float, align 4
  %25 = alloca float, align 4
  %26 = alloca float, align 4
  %27 = alloca %"class.ZXing::ResultPoint", align 8
  %28 = alloca %"class.ZXing::ResultPoint", align 8
  %29 = alloca %"class.ZXing::ResultPoint", align 8
  %30 = alloca %"class.ZXing::ResultPoint", align 8
  %31 = alloca %"class.ZXing::ResultPoint", align 8
  %32 = alloca %"class.ZXing::ResultPoint", align 8
  %33 = alloca %"class.ZXing::ResultPoint", align 8
  %34 = alloca %"class.ZXing::ResultPoint", align 8
  store ptr %0, ptr %10, align 8
  store ptr %1, ptr %11, align 8
  store ptr %2, ptr %12, align 8
  store ptr %3, ptr %13, align 8
  store i32 %4, ptr %14, align 4
  store ptr %5, ptr %15, align 8
  store ptr %6, ptr %16, align 8
  store ptr %7, ptr %17, align 8
  store ptr %8, ptr %18, align 8
  %35 = load ptr, ptr %10, align 8
  %36 = call noundef float @_ZNK5ZXing11ResultPoint1xEv(ptr noundef nonnull align 8 dereferenceable(16) %35)
  store float %36, ptr %19, align 4
  %37 = load ptr, ptr %10, align 8
  %38 = call noundef float @_ZNK5ZXing11ResultPoint1yEv(ptr noundef nonnull align 8 dereferenceable(16) %37)
  store float %38, ptr %20, align 4
  %39 = load ptr, ptr %11, align 8
  %40 = call noundef float @_ZNK5ZXing11ResultPoint1xEv(ptr noundef nonnull align 8 dereferenceable(16) %39)
  store float %40, ptr %21, align 4
  %41 = load ptr, ptr %11, align 8
  %42 = call noundef float @_ZNK5ZXing11ResultPoint1yEv(ptr noundef nonnull align 8 dereferenceable(16) %41)
  store float %42, ptr %22, align 4
  %43 = load ptr, ptr %12, align 8
  %44 = call noundef float @_ZNK5ZXing11ResultPoint1xEv(ptr noundef nonnull align 8 dereferenceable(16) %43)
  store float %44, ptr %23, align 4
  %45 = load ptr, ptr %12, align 8
  %46 = call noundef float @_ZNK5ZXing11ResultPoint1yEv(ptr noundef nonnull align 8 dereferenceable(16) %45)
  store float %46, ptr %24, align 4
  %47 = load ptr, ptr %13, align 8
  %48 = call noundef float @_ZNK5ZXing11ResultPoint1xEv(ptr noundef nonnull align 8 dereferenceable(16) %47)
  store float %48, ptr %25, align 4
  %49 = load ptr, ptr %13, align 8
  %50 = call noundef float @_ZNK5ZXing11ResultPoint1yEv(ptr noundef nonnull align 8 dereferenceable(16) %49)
  store float %50, ptr %26, align 4
  %51 = load float, ptr %19, align 4
  %52 = load i32, ptr %14, align 4
  %53 = sitofp i32 %52 to float
  %54 = fdiv float %53, 2.000000e+00
  %55 = fcmp olt float %51, %54
  br i1 %55, label %56, label %77

56:                                               ; preds = %9
  %57 = load float, ptr %25, align 4
  %58 = fsub float %57, 1.000000e+00
  %59 = load float, ptr %26, align 4
  %60 = fadd float %59, 1.000000e+00
  call void @_ZN5ZXing11ResultPointC2Eff(ptr noundef nonnull align 8 dereferenceable(16) %27, float noundef %58, float noundef %60)
  %61 = load ptr, ptr %15, align 8
  call void @llvm.memcpy.p0.p0.i64(ptr align 8 %61, ptr align 8 %27, i64 16, i1 false)
  %62 = load float, ptr %21, align 4
  %63 = fadd float %62, 1.000000e+00
  %64 = load float, ptr %22, align 4
  %65 = fadd float %64, 1.000000e+00
  call void @_ZN5ZXing11ResultPointC2Eff(ptr noundef nonnull align 8 dereferenceable(16) %28, float noundef %63, float noundef %65)
  %66 = load ptr, ptr %16, align 8
  call void @llvm.memcpy.p0.p0.i64(ptr align 8 %66, ptr align 8 %28, i64 16, i1 false)
  %67 = load float, ptr %23, align 4
  %68 = fsub float %67, 1.000000e+00
  %69 = load float, ptr %24, align 4
  %70 = fsub float %69, 1.000000e+00
  call void @_ZN5ZXing11ResultPointC2Eff(ptr noundef nonnull align 8 dereferenceable(16) %29, float noundef %68, float noundef %70)
  %71 = load ptr, ptr %17, align 8
  call void @llvm.memcpy.p0.p0.i64(ptr align 8 %71, ptr align 8 %29, i64 16, i1 false)
  %72 = load float, ptr %19, align 4
  %73 = fadd float %72, 1.000000e+00
  %74 = load float, ptr %20, align 4
  %75 = fsub float %74, 1.000000e+00
  call void @_ZN5ZXing11ResultPointC2Eff(ptr noundef nonnull align 8 dereferenceable(16) %30, float noundef %73, float noundef %75)
  %76 = load ptr, ptr %18, align 8
  call void @llvm.memcpy.p0.p0.i64(ptr align 8 %76, ptr align 8 %30, i64 16, i1 false)
  br label %98

77:                                               ; preds = %9
  %78 = load float, ptr %25, align 4
  %79 = fadd float %78, 1.000000e+00
  %80 = load float, ptr %26, align 4
  %81 = fadd float %80, 1.000000e+00
  call void @_ZN5ZXing11ResultPointC2Eff(ptr noundef nonnull align 8 dereferenceable(16) %31, float noundef %79, float noundef %81)
  %82 = load ptr, ptr %15, align 8
  call void @llvm.memcpy.p0.p0.i64(ptr align 8 %82, ptr align 8 %31, i64 16, i1 false)
  %83 = load float, ptr %21, align 4
  %84 = fadd float %83, 1.000000e+00
  %85 = load float, ptr %22, align 4
  %86 = fsub float %85, 1.000000e+00
  call void @_ZN5ZXing11ResultPointC2Eff(ptr noundef nonnull align 8 dereferenceable(16) %32, float noundef %84, float noundef %86)
  %87 = load ptr, ptr %16, align 8
  call void @llvm.memcpy.p0.p0.i64(ptr align 8 %87, ptr align 8 %32, i64 16, i1 false)
  %88 = load float, ptr %23, align 4
  %89 = fsub float %88, 1.000000e+00
  %90 = load float, ptr %24, align 4
  %91 = fadd float %90, 1.000000e+00
  call void @_ZN5ZXing11ResultPointC2Eff(ptr noundef nonnull align 8 dereferenceable(16) %33, float noundef %89, float noundef %91)
  %92 = load ptr, ptr %17, align 8
  call void @llvm.memcpy.p0.p0.i64(ptr align 8 %92, ptr align 8 %33, i64 16, i1 false)
  %93 = load float, ptr %19, align 4
  %94 = fsub float %93, 1.000000e+00
  %95 = load float, ptr %20, align 4
  %96 = fsub float %95, 1.000000e+00
  call void @_ZN5ZXing11ResultPointC2Eff(ptr noundef nonnull align 8 dereferenceable(16) %34, float noundef %94, float noundef %96)
  %97 = load ptr, ptr %18, align 8
  call void @llvm.memcpy.p0.p0.i64(ptr align 8 %97, ptr align 8 %34, i64 16, i1 false)
  br label %98

98:                                               ; preds = %77, %56
  ret void
}