; Function Attrs: mustprogress nofree norecurse nosync nounwind willreturn memory(argmem: write) uwtable
define internal fastcc void @_ZN5ZXingL11CenterEdgesERKNS_11ResultPointES2_S2_S2_iRS0_S3_S3_S3_(double %.0.val, double %.8.val, double %.0.val1, double %.8.val3, double %.0.val5, double %.8.val7, double %.0.val9, double %.8.val11, i32 noundef %0, ptr nocapture noundef nonnull writeonly align 8 dereferenceable(16) %1, ptr nocapture noundef nonnull writeonly align 8 dereferenceable(16) %2, ptr nocapture noundef nonnull writeonly align 8 dereferenceable(16) %3, ptr nocapture noundef nonnull writeonly align 8 dereferenceable(16) %4) unnamed_addr #2 {
  %6 = insertelement <2 x double> poison, double %.0.val, i64 0
  %7 = insertelement <2 x double> %6, double %.8.val, i64 1
  %8 = fptrunc <2 x double> %7 to <2 x float>
  %9 = insertelement <2 x double> poison, double %.0.val1, i64 0
  %10 = insertelement <2 x double> %9, double %.8.val3, i64 1
  %11 = fptrunc <2 x double> %10 to <2 x float>
  %12 = insertelement <2 x double> poison, double %.0.val5, i64 0
  %13 = insertelement <2 x double> %12, double %.8.val7, i64 1
  %14 = fptrunc <2 x double> %13 to <2 x float>
  %15 = insertelement <2 x double> poison, double %.0.val9, i64 0
  %16 = insertelement <2 x double> %15, double %.8.val11, i64 1
  %17 = fptrunc <2 x double> %16 to <2 x float>
  %18 = sitofp i32 %0 to float
  %19 = fmul float %18, 5.000000e-01
  %20 = extractelement <2 x float> %8, i64 0
  %21 = fcmp ogt float %19, %20
  %. = select i1 %21, float -1.000000e+00, float 1.000000e+00
  %.38 = select i1 %21, float 1.000000e+00, float -1.000000e+00
  %22 = insertelement <2 x float> <float poison, float 1.000000e+00>, float %., i64 0
  %23 = fadd <2 x float> %22, %17
  %24 = fpext <2 x float> %23 to <2 x double>
  store <2 x double> %24, ptr %1, align 8
  %25 = insertelement <2 x float> <float 1.000000e+00, float poison>, float %.38, i64 1
  %26 = fadd <2 x float> %25, %11
  %27 = fpext <2 x float> %26 to <2 x double>
  store <2 x double> %27, ptr %2, align 8
  %28 = insertelement <2 x float> <float -1.000000e+00, float poison>, float %., i64 1
  %29 = fadd <2 x float> %28, %14
  %30 = fpext <2 x float> %29 to <2 x double>
  store <2 x double> %30, ptr %3, align 8
  %31 = insertelement <2 x float> <float poison, float -1.000000e+00>, float %.38, i64 0
  %32 = fadd <2 x float> %31, %8
  %33 = fpext <2 x float> %32 to <2 x double>
  store <2 x double> %33, ptr %4, align 8
  ret void
}